; ModuleID = 'source-C-CXX/27/1856.c'
source_filename = "source-C-CXX/27/1856.c"
target datalayout = "e-m:e-p270:32:32-p271:32:32-p272:64:64-i64:64-f80:128-n8:16:32:64-S128"
target triple = "x86_64-pc-linux-gnu"

@.str = private unnamed_addr constant [4 x i8] c"%d,\00", align 1
@.str.1 = private unnamed_addr constant [3 x i8] c"%d\00", align 1

; Function Attrs: nounwind sspstrong uwtable
define dso_local i32 @main() local_unnamed_addr #0 {
  %1 = alloca [2000 x i8], align 16
  %2 = alloca [300 x [20 x i8]], align 16
  %3 = getelementptr inbounds [2000 x i8], [2000 x i8]* %1, i64 0, i64 0
  call void @llvm.lifetime.start.p0i8(i64 2000, i8* nonnull %3) #5
  %4 = getelementptr inbounds [300 x [20 x i8]], [300 x [20 x i8]]* %2, i64 0, i64 0, i64 0
  call void @llvm.lifetime.start.p0i8(i64 6000, i8* nonnull %4) #5
  %5 = call i32 (i8*, ...) bitcast (i32 (...)* @gets to i32 (i8*, ...)*)(i8* nonnull %3) #5
  br label %6

6:                                                ; preds = %27, %0
  %7 = phi i64 [ %23, %27 ], [ 0, %0 ]
  %8 = phi i32 [ %31, %27 ], [ 0, %0 ]
  %9 = zext i32 %8 to i64
  br label %10

10:                                               ; preds = %6, %17
  %11 = phi i64 [ %7, %6 ], [ %21, %17 ]
  %12 = phi i32 [ 0, %6 ], [ %20, %17 ]
  br label %13

13:                                               ; preds = %10, %22
  %14 = phi i64 [ %23, %22 ], [ %11, %10 ]
  %15 = getelementptr inbounds [2000 x i8], [2000 x i8]* %1, i64 0, i64 %14
  %16 = load i8, i8* %15, align 1, !tbaa !5
  switch i8 %16, label %17 [
    i8 0, label %32
    i8 32, label %22
  ]

17:                                               ; preds = %13
  %18 = zext i32 %12 to i64
  %19 = getelementptr inbounds [300 x [20 x i8]], [300 x [20 x i8]]* %2, i64 0, i64 %9, i64 %18
  store i8 %16, i8* %19, align 1, !tbaa !5
  %20 = add nuw nsw i32 %12, 1
  %21 = add nuw i64 %14, 1
  br label %10, !llvm.loop !8

22:                                               ; preds = %13
  %23 = add nuw i64 %14, 1
  %24 = getelementptr inbounds [2000 x i8], [2000 x i8]* %1, i64 0, i64 %23
  %25 = load i8, i8* %24, align 1, !tbaa !5
  %26 = icmp eq i8 %25, 32
  br i1 %26, label %13, label %27, !llvm.loop !8

27:                                               ; preds = %22
  %28 = zext i32 %8 to i64
  %29 = zext i32 %12 to i64
  %30 = getelementptr inbounds [300 x [20 x i8]], [300 x [20 x i8]]* %2, i64 0, i64 %28, i64 %29
  store i8 0, i8* %30, align 1, !tbaa !5
  %31 = add nuw nsw i32 %8, 1
  br label %6, !llvm.loop !8

32:                                               ; preds = %13
  %33 = zext i32 %8 to i64
  %34 = zext i32 %12 to i64
  %35 = getelementptr inbounds [300 x [20 x i8]], [300 x [20 x i8]]* %2, i64 0, i64 %33, i64 %34
  store i8 0, i8* %35, align 1, !tbaa !5
  %36 = icmp eq i32 %8, 0
  br i1 %36, label %46, label %37

37:                                               ; preds = %32
  %38 = zext i32 %8 to i64
  br label %39

39:                                               ; preds = %37, %39
  %40 = phi i64 [ 0, %37 ], [ %44, %39 ]
  %41 = getelementptr inbounds [300 x [20 x i8]], [300 x [20 x i8]]* %2, i64 0, i64 %40, i64 0
  %42 = call i64 @strlen(i8* noundef nonnull %41) #6
  %43 = call i32 (i8*, ...) @printf(i8* nonnull dereferenceable(1) getelementptr inbounds ([4 x i8], [4 x i8]* @.str, i64 0, i64 0), i64 %42)
  %44 = add nuw nsw i64 %40, 1
  %45 = icmp eq i64 %44, %38
  br i1 %45, label %46, label %39, !llvm.loop !10

46:                                               ; preds = %39, %32
  %47 = getelementptr inbounds [300 x [20 x i8]], [300 x [20 x i8]]* %2, i64 0, i64 %33, i64 0
  %48 = call i64 @strlen(i8* noundef nonnull %47) #6
  %49 = call i32 (i8*, ...) @printf(i8* nonnull dereferenceable(1) getelementptr inbounds ([3 x i8], [3 x i8]* @.str.1, i64 0, i64 0), i64 %48)
  call void @llvm.lifetime.end.p0i8(i64 6000, i8* nonnull %4) #5
  call void @llvm.lifetime.end.p0i8(i64 2000, i8* nonnull %3) #5
  ret i32 0
}

; Function Attrs: argmemonly mustprogress nofree nosync nounwind willreturn
declare void @llvm.lifetime.start.p0i8(i64 immarg, i8* nocapture) #1

declare i32 @gets(...) local_unnamed_addr #2

; Function Attrs: nofree nounwind
declare noundef i32 @printf(i8* nocapture noundef readonly, ...) local_unnamed_addr #3

; Function Attrs: argmemonly mustprogress nofree nounwind readonly willreturn
declare i64 @strlen(i8* nocapture) local_unnamed_addr #4

; Function Attrs: argmemonly mustprogress nofree nosync nounwind willreturn
declare void @llvm.lifetime.end.p0i8(i64 immarg, i8* nocapture) #1


!llvm.module.flags = !{!0, !1, !2, !3}
!llvm.ident = !{!4}

!0 = !{i32 1, !"wchar_size", i32 4}
!1 = !{i32 7, !"PIC Level", i32 2}
!2 = !{i32 7, !"PIE Level", i32 2}
!3 = !{i32 7, !"uwtable", i32 1}
!4 = !{!"clang version 13.0.0"}
!5 = !{!6, !6, i64 0}
!6 = !{!"omnipotent char", !7, i64 0}
!7 = !{!"Simple C/C++ TBAA"}
!8 = distinct !{!8, !9}
!9 = !{!"llvm.loop.mustprogress"}
!10 = distinct !{!10, !9}
